; Function Attrs: mustprogress nofree norecurse nosync nounwind willreturn memory(read, inaccessiblemem: none) uwtable
define dso_local noundef zeroext i1 @_ZNK3igl9MshLoader23is_element_map_identityEv(ptr noundef nonnull readonly align 8 captures(none) dereferenceable(448) %0) local_unnamed_addr #10 align 2 {
  %2 = getelementptr inbounds nuw i8, ptr %0, i64 88
  %3 = getelementptr inbounds nuw i8, ptr %0, i64 96
  %4 = load ptr, ptr %3, align 8, !tbaa !97
  %5 = load ptr, ptr %2, align 8, !tbaa !83
  %6 = icmp eq ptr %4, %5
  br i1 %6, label %._crit_edge, label %.lr.ph.preheader

.lr.ph.preheader:                                 ; preds = %1
  %7 = ptrtoint ptr %4 to i64
  %8 = ptrtoint ptr %5 to i64
  %9 = sub i64 %7, %8
  %10 = ashr exact i64 %9, 2
  %umax = tail call i64 @llvm.umax.i64(i64 %10, i64 1)
  br label %.lr.ph

.lr.ph:                                           ; preds = %.lr.ph, %.lr.ph.preheader
  %indvars.iv = phi i64 [ 0, %.lr.ph.preheader ], [ %indvars.iv.next, %.lr.ph ]
  %11 = getelementptr inbounds nuw i32, ptr %5, i64 %indvars.iv
  %12 = load i32, ptr %11, align 4, !tbaa !24
  %13 = zext i32 %12 to i64
  %.not = icmp eq i64 %indvars.iv, %13
  %indvars.iv.next = add nuw nsw i64 %indvars.iv, 1
  %exitcond.not = icmp ne i64 %indvars.iv.next, %umax
  %or.cond.not = select i1 %.not, i1 %exitcond.not, i1 false
  br i1 %or.cond.not, label %.lr.ph, label %._crit_edge, !llvm.loop !156

._crit_edge:                                      ; preds = %.lr.ph, %1
  %.lcssa = phi i1 [ true, %1 ], [ %.not, %.lr.ph ]
  ret i1 %.lcssa
}